; Function Attrs: nounwind uwtable
define dso_local void @ExecInitResultTypeTL(ptr noundef captures(none) initializes((112, 120)) %0) local_unnamed_addr #1 {
  %2 = getelementptr inbounds nuw i8, ptr %0, i64 8
  %3 = load ptr, ptr %2, align 8
  %4 = getelementptr inbounds nuw i8, ptr %3, i64 48
  %5 = load ptr, ptr %4, align 8
  %6 = tail call fastcc ptr @ExecTypeFromTLInternal(ptr noundef %5, i1 noundef zeroext false)
  %7 = getelementptr inbounds nuw i8, ptr %0, i64 112
  store ptr %6, ptr %7, align 8
  ret void
}